target datalayout = "e-m:e-p270:32:32-p271:32:32-p272:64:64-i64:64-i128:128-f80:128-n8:16:32:64-S128"
target triple = "x86_64-pc-linux-gnu"

%struct.fstWriterContext = type { ptr, ptr, ptr, ptr, ptr, ptr, ptr, i64, ptr, ptr, ptr, i32, ptr, i32, i32, i32, i8, i64, i64, i32, i32, i64, i64, i32, i32, i32, i64, i32, double, ptr, ptr, i32, i64, i8, i8, i8, i8, i8, i64, i64, i64, i64, i64, i32, ptr, i32, i8, ptr, ptr, ptr, ptr, i32 }

; Function Attrs: mustprogress uwtable
define internal noundef i32 @_ZL15fstWriterFseekoP16fstWriterContextP8_IO_FILEli(ptr noundef %0, ptr noundef %1, i64 noundef %2, i32 noundef %3) #0 {
  %5 = alloca ptr, align 8
  %6 = alloca ptr, align 8
  %7 = alloca i64, align 8
  %8 = alloca i32, align 4
  %9 = alloca i32, align 4
  store ptr %0, ptr %5, align 8, !tbaa !13
  store ptr %1, ptr %6, align 8, !tbaa !33
  store i64 %2, ptr %7, align 8, !tbaa !35
  store i32 %3, ptr %8, align 4, !tbaa !11
  call void @llvm.lifetime.start.p0(i64 4, ptr %9) #15
  %10 = load ptr, ptr %6, align 8, !tbaa !33
  %11 = load i64, ptr %7, align 8, !tbaa !35
  %12 = load i32, ptr %8, align 4, !tbaa !11
  %13 = call i32 @fseeko(ptr noundef %10, i64 noundef %11, i32 noundef %12)
  store i32 %13, ptr %9, align 4, !tbaa !11
  %14 = load i32, ptr %9, align 4, !tbaa !11
  %15 = icmp slt i32 %14, 0
  br i1 %15, label %16, label %22

16:                                               ; preds = %4
  %17 = load ptr, ptr %5, align 8, !tbaa !13
  %18 = getelementptr inbounds nuw %struct.fstWriterContext, ptr %17, i32 0, i32 46
  %19 = load i8, ptr %18, align 4
  %20 = and i8 %19, -2
  %21 = or i8 %20, 1
  store i8 %21, ptr %18, align 4
  br label %22

22:                                               ; preds = %16, %4
  %23 = load i32, ptr %9, align 4, !tbaa !11
  call void @llvm.lifetime.end.p0(i64 4, ptr %9) #15
  ret i32 %23
}

; Function Attrs: mustprogress uwtable
define void @fstWriterSetTimescale(ptr noundef %0, i32 noundef %1) #0 {
  %3 = alloca ptr, align 8
  %4 = alloca i32, align 4
  %5 = alloca ptr, align 8
  %6 = alloca i64, align 8
  store ptr %0, ptr %3, align 8, !tbaa !50
  store i32 %1, ptr %4, align 4, !tbaa !11
  call void @llvm.lifetime.start.p0(i64 8, ptr %5) #15
  %7 = load ptr, ptr %3, align 8, !tbaa !50
  store ptr %7, ptr %5, align 8, !tbaa !13
  %8 = load ptr, ptr %5, align 8, !tbaa !13
  %9 = icmp ne ptr %8, null
  br i1 %9, label %10, label %36

10:                                               ; preds = %2
  call void @llvm.lifetime.start.p0(i64 8, ptr %6) #15
  %11 = load ptr, ptr %5, align 8, !tbaa !13
  %12 = getelementptr inbounds nuw %struct.fstWriterContext, ptr %11, i32 0, i32 0
  %13 = load ptr, ptr %12, align 8, !tbaa !15
  %14 = call i64 @ftello(ptr noundef %13)
  store i64 %14, ptr %6, align 8, !tbaa !35
  %15 = load ptr, ptr %5, align 8, !tbaa !13
  %16 = load ptr, ptr %5, align 8, !tbaa !13
  %17 = getelementptr inbounds nuw %struct.fstWriterContext, ptr %16, i32 0, i32 0
  %18 = load ptr, ptr %17, align 8, !tbaa !15
  %19 = call noundef i32 @_ZL15fstWriterFseekoP16fstWriterContextP8_IO_FILEli(ptr noundef %15, ptr noundef %18, i64 noundef 73, i32 noundef 0)
  %20 = load i32, ptr %4, align 4, !tbaa !11
  %21 = and i32 %20, 255
  %22 = load ptr, ptr %5, align 8, !tbaa !13
  %23 = getelementptr inbounds nuw %struct.fstWriterContext, ptr %22, i32 0, i32 0
  %24 = load ptr, ptr %23, align 8, !tbaa !15
  %25 = call i32 @fputc(i32 noundef %21, ptr noundef %24)
  %26 = load ptr, ptr %5, align 8, !tbaa !13
  %27 = getelementptr inbounds nuw %struct.fstWriterContext, ptr %26, i32 0, i32 0
  %28 = load ptr, ptr %27, align 8, !tbaa !15
  %29 = call i32 @fflush(ptr noundef %28)
  %30 = load ptr, ptr %5, align 8, !tbaa !13
  %31 = load ptr, ptr %5, align 8, !tbaa !13
  %32 = getelementptr inbounds nuw %struct.fstWriterContext, ptr %31, i32 0, i32 0
  %33 = load ptr, ptr %32, align 8, !tbaa !15
  %34 = load i64, ptr %6, align 8, !tbaa !35
  %35 = call noundef i32 @_ZL15fstWriterFseekoP16fstWriterContextP8_IO_FILEli(ptr noundef %30, ptr noundef %33, i64 noundef %34, i32 noundef 0)
  call void @llvm.lifetime.end.p0(i64 8, ptr %6) #15
  br label %36

36:                                               ; preds = %10, %2
  call void @llvm.lifetime.end.p0(i64 8, ptr %5) #15
  ret void
}

; Function Attrs: inlinehint mustprogress nounwind willreturn memory(read) uwtable
define available_externally i32 @atoi(ptr noundef nonnull %0) #12 {
  %2 = alloca ptr, align 8
  store ptr %0, ptr %2, align 8, !tbaa !6
  %3 = load ptr, ptr %2, align 8, !tbaa !6
  %4 = call i64 @strtol(ptr noundef %3, ptr noundef null, i32 noundef 10) #15
  %5 = trunc i64 %4 to i32
  ret i32 %5
}

; Function Attrs: mustprogress uwtable
define void @fstWriterSetTimescaleFromString(ptr noundef %0, ptr noundef %1) #0 {
  %3 = alloca ptr, align 8
  %4 = alloca ptr, align 8
  %5 = alloca ptr, align 8
  %6 = alloca i32, align 4
  %7 = alloca i32, align 4
  %8 = alloca i32, align 4
  %9 = alloca ptr, align 8
  store ptr %0, ptr %3, align 8, !tbaa !50
  store ptr %1, ptr %4, align 8, !tbaa !6
  call void @llvm.lifetime.start.p0(i64 8, ptr %5) #15
  %10 = load ptr, ptr %3, align 8, !tbaa !50
  store ptr %10, ptr %5, align 8, !tbaa !13
  %11 = load ptr, ptr %5, align 8, !tbaa !13
  %12 = icmp ne ptr %11, null
  br i1 %12, label %13, label %60

13:                                               ; preds = %2
  %14 = load ptr, ptr %4, align 8, !tbaa !6
  %15 = icmp ne ptr %14, null
  br i1 %15, label %16, label %60

16:                                               ; preds = %13
  call void @llvm.lifetime.start.p0(i64 4, ptr %6) #15
  store i32 0, ptr %6, align 4, !tbaa !11
  call void @llvm.lifetime.start.p0(i64 4, ptr %7) #15
  store i32 -9, ptr %7, align 4, !tbaa !11
  call void @llvm.lifetime.start.p0(i64 4, ptr %8) #15
  %17 = load ptr, ptr %4, align 8, !tbaa !6
  %18 = call i32 @atoi(ptr noundef %17) #17
  store i32 %18, ptr %8, align 4, !tbaa !11
  call void @llvm.lifetime.start.p0(i64 8, ptr %9) #15
  %19 = load ptr, ptr %4, align 8, !tbaa !6
  store ptr %19, ptr %9, align 8, !tbaa !6
  br label %20

20:                                               ; preds = %41, %16
  %21 = load ptr, ptr %9, align 8, !tbaa !6
  %22 = load i8, ptr %21, align 1, !tbaa !34
  %23 = icmp ne i8 %22, 0
  br i1 %23, label %24, label %44

24:                                               ; preds = %20
  %25 = load ptr, ptr %9, align 8, !tbaa !6
  %26 = load i8, ptr %25, align 1, !tbaa !34
  %27 = sext i8 %26 to i32
  switch i32 %27, label %36 [
    i32 109, label %28
    i32 117, label %29
    i32 110, label %30
    i32 112, label %31
    i32 102, label %32
    i32 97, label %33
    i32 122, label %34
    i32 115, label %35
  ]

28:                                               ; preds = %24
  store i32 -3, ptr %7, align 4, !tbaa !11
  store i32 1, ptr %6, align 4, !tbaa !11
  br label %37

29:                                               ; preds = %24
  store i32 -6, ptr %7, align 4, !tbaa !11
  store i32 1, ptr %6, align 4, !tbaa !11
  br label %37

30:                                               ; preds = %24
  store i32 -9, ptr %7, align 4, !tbaa !11
  store i32 1, ptr %6, align 4, !tbaa !11
  br label %37

31:                                               ; preds = %24
  store i32 -12, ptr %7, align 4, !tbaa !11
  store i32 1, ptr %6, align 4, !tbaa !11
  br label %37

32:                                               ; preds = %24
  store i32 -15, ptr %7, align 4, !tbaa !11
  store i32 1, ptr %6, align 4, !tbaa !11
  br label %37

33:                                               ; preds = %24
  store i32 -18, ptr %7, align 4, !tbaa !11
  store i32 1, ptr %6, align 4, !tbaa !11
  br label %37

34:                                               ; preds = %24
  store i32 -21, ptr %7, align 4, !tbaa !11
  store i32 1, ptr %6, align 4, !tbaa !11
  br label %37

35:                                               ; preds = %24
  store i32 0, ptr %7, align 4, !tbaa !11
  store i32 1, ptr %6, align 4, !tbaa !11
  br label %37

36:                                               ; preds = %24
  br label %37

37:                                               ; preds = %36, %35, %34, %33, %32, %31, %30, %29, %28
  %38 = load i32, ptr %6, align 4, !tbaa !11
  %39 = icmp ne i32 %38, 0
  br i1 %39, label %40, label %41

40:                                               ; preds = %37
  br label %44

41:                                               ; preds = %37
  %42 = load ptr, ptr %9, align 8, !tbaa !6
  %43 = getelementptr inbounds nuw i8, ptr %42, i32 1
  store ptr %43, ptr %9, align 8, !tbaa !6
  br label %20, !llvm.loop !111

44:                                               ; preds = %40, %20
  %45 = load i32, ptr %8, align 4, !tbaa !11
  %46 = icmp eq i32 %45, 10
  br i1 %46, label %47, label %50

47:                                               ; preds = %44
  %48 = load i32, ptr %7, align 4, !tbaa !11
  %49 = add nsw i32 %48, 1
  store i32 %49, ptr %7, align 4, !tbaa !11
  br label %57

50:                                               ; preds = %44
  %51 = load i32, ptr %8, align 4, !tbaa !11
  %52 = icmp eq i32 %51, 100
  br i1 %52, label %53, label %56

53:                                               ; preds = %50
  %54 = load i32, ptr %7, align 4, !tbaa !11
  %55 = add nsw i32 %54, 2
  store i32 %55, ptr %7, align 4, !tbaa !11
  br label %56

56:                                               ; preds = %53, %50
  br label %57

57:                                               ; preds = %56, %47
  %58 = load ptr, ptr %3, align 8, !tbaa !50
  %59 = load i32, ptr %7, align 4, !tbaa !11
  call void @fstWriterSetTimescale(ptr noundef %58, i32 noundef %59)
  call void @llvm.lifetime.end.p0(i64 8, ptr %9) #15
  call void @llvm.lifetime.end.p0(i64 4, ptr %8) #15
  call void @llvm.lifetime.end.p0(i64 4, ptr %7) #15
  call void @llvm.lifetime.end.p0(i64 4, ptr %6) #15
  br label %60

60:                                               ; preds = %57, %13, %2
  call void @llvm.lifetime.end.p0(i64 8, ptr %5) #15
  ret void
}