; Function Attrs: mustprogress nofree nounwind uwtable
define void @fstWriterSetTimescaleFromString(ptr noundef captures(address_is_null) %0, ptr noundef readonly captures(address_is_null) %1) local_unnamed_addr #14 {
  %3 = icmp ne ptr %0, null
  %4 = icmp ne ptr %1, null
  %or.cond = and i1 %3, %4
  br i1 %or.cond, label %5, label %fstWriterSetTimescale.exit

5:                                                ; preds = %2
  %6 = tail call i64 @strtol(ptr noundef nonnull captures(none) %1, ptr noundef null, i32 noundef 10) #39
  %7 = trunc i64 %6 to i32
  br label %8

8:                                                ; preds = %11, %5
  %.0 = phi ptr [ %1, %5 ], [ %12, %11 ]
  %9 = load i8, ptr %.0, align 1, !tbaa !6
  switch i8 %9, label %11 [
    i8 0, label %.loopexit
    i8 109, label %.thread
    i8 117, label %.loopexit25
    i8 110, label %.loopexit
    i8 112, label %.loopexit26
    i8 102, label %.loopexit27
    i8 97, label %.loopexit28
    i8 122, label %13
    i8 115, label %10
  ]

10:                                               ; preds = %8
  br label %13

.thread:                                          ; preds = %8
  br label %13

11:                                               ; preds = %8
  %12 = getelementptr inbounds nuw i8, ptr %.0, i64 1
  br label %8, !llvm.loop !106

.loopexit:                                        ; preds = %8, %8
  br label %13

.loopexit25:                                      ; preds = %8
  br label %13

.loopexit26:                                      ; preds = %8
  br label %13

.loopexit27:                                      ; preds = %8
  br label %13

.loopexit28:                                      ; preds = %8
  br label %13

13:                                               ; preds = %8, %.loopexit28, %.loopexit27, %.loopexit26, %.loopexit25, %.loopexit, %10, %.thread
  %.117 = phi i32 [ 0, %10 ], [ -3, %.thread ], [ -9, %.loopexit ], [ -6, %.loopexit25 ], [ -12, %.loopexit26 ], [ -15, %.loopexit27 ], [ -18, %.loopexit28 ], [ -21, %8 ]
  switch i32 %7, label %18 [
    i32 10, label %14
    i32 100, label %16
  ]

14:                                               ; preds = %13
  %15 = add nsw i32 %.117, 1
  br label %18

16:                                               ; preds = %13
  %17 = add nsw i32 %.117, 2
  br label %18

18:                                               ; preds = %14, %16, %13
  %.3 = phi i32 [ %15, %14 ], [ %17, %16 ], [ %.117, %13 ]
  %19 = load ptr, ptr %0, align 8, !tbaa !26
  %20 = tail call i64 @ftello(ptr noundef %19)
  %21 = load ptr, ptr %0, align 8, !tbaa !26
  %22 = tail call i32 @fseeko(ptr noundef %21, i64 noundef 73, i32 noundef 0)
  %23 = icmp slt i32 %22, 0
  br i1 %23, label %24, label %_ZL15fstWriterFseekoP16fstWriterContextP8_IO_FILEli.exit.i

24:                                               ; preds = %18
  %25 = getelementptr inbounds nuw i8, ptr %0, i64 300
  %26 = load i8, ptr %25, align 4
  %27 = or i8 %26, 1
  store i8 %27, ptr %25, align 4
  br label %_ZL15fstWriterFseekoP16fstWriterContextP8_IO_FILEli.exit.i

_ZL15fstWriterFseekoP16fstWriterContextP8_IO_FILEli.exit.i: ; preds = %24, %18
  %28 = and i32 %.3, 255
  %29 = load ptr, ptr %0, align 8, !tbaa !26
  %30 = tail call i32 @fputc(i32 noundef %28, ptr noundef %29)
  %31 = load ptr, ptr %0, align 8, !tbaa !26
  %32 = tail call i32 @fflush(ptr noundef %31)
  %33 = load ptr, ptr %0, align 8, !tbaa !26
  %34 = tail call i32 @fseeko(ptr noundef %33, i64 noundef %20, i32 noundef 0)
  %35 = icmp slt i32 %34, 0
  br i1 %35, label %36, label %fstWriterSetTimescale.exit

36:                                               ; preds = %_ZL15fstWriterFseekoP16fstWriterContextP8_IO_FILEli.exit.i
  %37 = getelementptr inbounds nuw i8, ptr %0, i64 300
  %38 = load i8, ptr %37, align 4
  %39 = or i8 %38, 1
  store i8 %39, ptr %37, align 4
  br label %fstWriterSetTimescale.exit

fstWriterSetTimescale.exit:                       ; preds = %36, %_ZL15fstWriterFseekoP16fstWriterContextP8_IO_FILEli.exit.i, %2
  ret void
}